target datalayout = "e-m:e-p270:32:32-p271:32:32-p272:64:64-i64:64-i128:128-f80:128-n8:16:32:64-S128"
target triple = "x86_64-pc-linux-gnu"

%struct.ClientConnectionInfo = type { ptr, i32 }
%struct.SerializedClientConnectionInfo = type { i32, i32 }

@TopMemoryContext = external global ptr, align 8
@MyClientConnectionInfo = dso_local global %struct.ClientConnectionInfo zeroinitializer, align 8

; Function Attrs: nounwind uwtable
define dso_local void @RestoreClientConnectionInfo(ptr noundef %0) #0 {
  %2 = alloca ptr, align 8
  %3 = alloca %struct.SerializedClientConnectionInfo, align 4
  %4 = alloca ptr, align 8
  store ptr %0, ptr %2, align 8
  call void @llvm.lifetime.start.p0(i64 8, ptr %3) #12
  %5 = load ptr, ptr %2, align 8
  call void @llvm.memcpy.p0.p0.i64(ptr align 4 %3, ptr align 1 %5, i64 8, i1 false)
  store ptr null, ptr @MyClientConnectionInfo, align 8
  %6 = getelementptr inbounds nuw %struct.SerializedClientConnectionInfo, ptr %3, i32 0, i32 1
  %7 = load i32, ptr %6, align 4
  store i32 %7, ptr getelementptr inbounds nuw (%struct.ClientConnectionInfo, ptr @MyClientConnectionInfo, i32 0, i32 1), align 8
  %8 = getelementptr inbounds nuw %struct.SerializedClientConnectionInfo, ptr %3, i32 0, i32 0
  %9 = load i32, ptr %8, align 4
  %10 = icmp sge i32 %9, 0
  br i1 %10, label %11, label %17

11:                                               ; preds = %1
  call void @llvm.lifetime.start.p0(i64 8, ptr %4) #12
  %12 = load ptr, ptr %2, align 8
  %13 = getelementptr inbounds nuw i8, ptr %12, i64 8
  store ptr %13, ptr %4, align 8
  %14 = load ptr, ptr @TopMemoryContext, align 8
  %15 = load ptr, ptr %4, align 8
  %16 = call ptr @MemoryContextStrdup(ptr noundef %14, ptr noundef %15)
  store ptr %16, ptr @MyClientConnectionInfo, align 8
  call void @llvm.lifetime.end.p0(i64 8, ptr %4) #12
  br label %17

17:                                               ; preds = %11, %1
  call void @llvm.lifetime.end.p0(i64 8, ptr %3) #12
  ret void
}