; Function Attrs: nounwind uwtable
define dso_local void @RestoreClientConnectionInfo(ptr noundef %0) local_unnamed_addr #0 {
  %.sroa.0.0.copyload = load i32, ptr %0, align 1
  %.sroa.4.0..sroa_idx = getelementptr inbounds nuw i8, ptr %0, i64 4
  %.sroa.4.0.copyload = load i32, ptr %.sroa.4.0..sroa_idx, align 1
  store ptr null, ptr @MyClientConnectionInfo, align 8
  store i32 %.sroa.4.0.copyload, ptr getelementptr inbounds nuw (i8, ptr @MyClientConnectionInfo, i64 8), align 8
  %2 = icmp sgt i32 %.sroa.0.0.copyload, -1
  br i1 %2, label %3, label %7

3:                                                ; preds = %1
  %4 = getelementptr inbounds nuw i8, ptr %0, i64 8
  %5 = load ptr, ptr @TopMemoryContext, align 8
  %6 = tail call ptr @MemoryContextStrdup(ptr noundef %5, ptr noundef nonnull %4) #22
  store ptr %6, ptr @MyClientConnectionInfo, align 8
  br label %7

7:                                                ; preds = %3, %1
  ret void
}